target datalayout = "e-m:e-p270:32:32-p271:32:32-p272:64:64-i64:64-i128:128-f80:128-n8:16:32:64-S128"
target triple = "x86_64-pc-linux-gnu"

%struct._object = type { %union.anon, ptr }
%union.anon = type { i64 }
%struct._ts = type { ptr, ptr, ptr, i64, %struct.anon, i32, i32, i32, i32, i32, i32, i32, i32, ptr, ptr, ptr, ptr, ptr, ptr, ptr, ptr, i32, ptr, i64, i64, ptr, i64, i32, ptr, ptr, ptr, i64, i64, ptr, ptr, ptr, %struct._err_stackitem, ptr, i64, ptr, ptr }
%struct.anon = type { i32 }
%struct._err_stackitem = type { ptr, ptr }
%struct.anon.5 = type { i32, i32 }

@PyExc_TypeError = external global ptr, align 8
@_Py_tss_tstate = external thread_local global ptr, align 8
@sys_getsizeof.kwlist = internal global [3 x ptr] [ptr @.str.115, ptr @.str.116, ptr null], align 16
@.str.117 = private unnamed_addr constant [14 x i8] c"O|O:getsizeof\00", align 1

; Function Attrs: alwaysinline nounwind uwtable
define internal void @Py_INCREF(ptr noundef %0) #5 {
  %2 = alloca ptr, align 8
  %3 = alloca i32, align 4
  %4 = alloca i32, align 4
  store ptr %0, ptr %2, align 8, !tbaa !9
  call void @llvm.lifetime.start.p0(i64 4, ptr %3) #12
  %5 = load ptr, ptr %2, align 8, !tbaa !9
  %6 = getelementptr inbounds nuw %struct._object, ptr %5, i32 0, i32 0
  %7 = getelementptr inbounds nuw %struct.anon.5, ptr %6, i32 0, i32 0
  %8 = load i32, ptr %7, align 8, !tbaa !102
  store i32 %8, ptr %3, align 4, !tbaa !97
  %9 = load i32, ptr %3, align 4, !tbaa !97
  %10 = icmp slt i32 %9, 0
  br i1 %10, label %11, label %12

11:                                               ; preds = %1
  store i32 1, ptr %4, align 4
  br label %18

12:                                               ; preds = %1
  %13 = load i32, ptr %3, align 4, !tbaa !97
  %14 = add i32 %13, 1
  %15 = load ptr, ptr %2, align 8, !tbaa !9
  %16 = getelementptr inbounds nuw %struct._object, ptr %15, i32 0, i32 0
  %17 = getelementptr inbounds nuw %struct.anon.5, ptr %16, i32 0, i32 0
  store i32 %14, ptr %17, align 8, !tbaa !102
  store i32 0, ptr %4, align 4
  br label %18

18:                                               ; preds = %12, %11
  call void @llvm.lifetime.end.p0(i64 4, ptr %3) #12
  %19 = load i32, ptr %4, align 4
  switch i32 %19, label %21 [
    i32 0, label %20
    i32 1, label %20
  ]

20:                                               ; preds = %18, %18
  ret void

21:                                               ; preds = %18
  unreachable
}

; Function Attrs: inlinehint nounwind uwtable
define internal ptr @_Py_TYPE(ptr noundef %0) #3 {
  %2 = alloca ptr, align 8
  store ptr %0, ptr %2, align 8, !tbaa !9
  %3 = load ptr, ptr %2, align 8, !tbaa !9
  %4 = getelementptr inbounds nuw %struct._object, ptr %3, i32 0, i32 1
  %5 = load ptr, ptr %4, align 8, !tbaa !206
  ret ptr %5
}

; Function Attrs: inlinehint nounwind uwtable
define internal ptr @_Py_NewRef(ptr noundef %0) #3 {
  %2 = alloca ptr, align 8
  store ptr %0, ptr %2, align 8, !tbaa !9
  %3 = load ptr, ptr %2, align 8, !tbaa !9
  call void @Py_INCREF(ptr noundef %3)
  %4 = load ptr, ptr %2, align 8, !tbaa !9
  ret ptr %4
}

; Function Attrs: inlinehint nounwind uwtable
define internal ptr @_PyErr_Occurred(ptr noundef %0) #3 {
  %2 = alloca ptr, align 8
  %3 = alloca ptr, align 8
  store ptr %0, ptr %3, align 8, !tbaa !4
  %4 = load ptr, ptr %3, align 8, !tbaa !4
  %5 = getelementptr inbounds nuw %struct._ts, ptr %4, i32 0, i32 18
  %6 = load ptr, ptr %5, align 8, !tbaa !96
  %7 = icmp eq ptr %6, null
  br i1 %7, label %8, label %9

8:                                                ; preds = %1
  store ptr null, ptr %2, align 8
  br label %14

9:                                                ; preds = %1
  %10 = load ptr, ptr %3, align 8, !tbaa !4
  %11 = getelementptr inbounds nuw %struct._ts, ptr %10, i32 0, i32 18
  %12 = load ptr, ptr %11, align 8, !tbaa !96
  %13 = call ptr @_Py_TYPE(ptr noundef %12)
  store ptr %13, ptr %2, align 8
  br label %14

14:                                               ; preds = %9, %8
  %15 = load ptr, ptr %2, align 8
  ret ptr %15
}

; Function Attrs: inlinehint nounwind uwtable
define internal ptr @_PyThreadState_GET() #3 {
  %1 = call align 8 ptr @llvm.threadlocal.address.p0(ptr align 8 @_Py_tss_tstate)
  %2 = load ptr, ptr %1, align 8, !tbaa !4
  ret ptr %2
}

; Function Attrs: nounwind uwtable
define internal ptr @sys_getsizeof(ptr noundef %0, ptr noundef %1, ptr noundef %2) #0 {
  %4 = alloca ptr, align 8
  %5 = alloca ptr, align 8
  %6 = alloca ptr, align 8
  %7 = alloca ptr, align 8
  %8 = alloca i64, align 8
  %9 = alloca ptr, align 8
  %10 = alloca ptr, align 8
  %11 = alloca ptr, align 8
  %12 = alloca i32, align 4
  store ptr %0, ptr %5, align 8, !tbaa !9
  store ptr %1, ptr %6, align 8, !tbaa !9
  store ptr %2, ptr %7, align 8, !tbaa !9
  call void @llvm.lifetime.start.p0(i64 8, ptr %8) #12
  call void @llvm.lifetime.start.p0(i64 8, ptr %9) #12
  call void @llvm.lifetime.start.p0(i64 8, ptr %10) #12
  store ptr null, ptr %10, align 8, !tbaa !9
  call void @llvm.lifetime.start.p0(i64 8, ptr %11) #12
  %13 = call ptr @_PyThreadState_GET()
  store ptr %13, ptr %11, align 8, !tbaa !4
  %14 = load ptr, ptr %6, align 8, !tbaa !9
  %15 = load ptr, ptr %7, align 8, !tbaa !9
  %16 = call i32 (ptr, ptr, ptr, ptr, ...) @PyArg_ParseTupleAndKeywords(ptr noundef %14, ptr noundef %15, ptr noundef @.str.117, ptr noundef @sys_getsizeof.kwlist, ptr noundef %9, ptr noundef %10)
  %17 = icmp ne i32 %16, 0
  br i1 %17, label %19, label %18

18:                                               ; preds = %3
  store ptr null, ptr %4, align 8
  store i32 1, ptr %12, align 4
  br label %44

19:                                               ; preds = %3
  %20 = load ptr, ptr %9, align 8, !tbaa !9
  %21 = call i64 @_PySys_GetSizeOf(ptr noundef %20)
  store i64 %21, ptr %8, align 8, !tbaa !204
  %22 = load i64, ptr %8, align 8, !tbaa !204
  %23 = icmp eq i64 %22, -1
  br i1 %23, label %24, label %41

24:                                               ; preds = %19
  %25 = load ptr, ptr %11, align 8, !tbaa !4
  %26 = call ptr @_PyErr_Occurred(ptr noundef %25)
  %27 = icmp ne ptr %26, null
  br i1 %27, label %28, label %41

28:                                               ; preds = %24
  %29 = load ptr, ptr %10, align 8, !tbaa !9
  %30 = icmp ne ptr %29, null
  br i1 %30, label %31, label %40

31:                                               ; preds = %28
  %32 = load ptr, ptr %11, align 8, !tbaa !4
  %33 = load ptr, ptr @PyExc_TypeError, align 8, !tbaa !9
  %34 = call i32 @_PyErr_ExceptionMatches(ptr noundef %32, ptr noundef %33)
  %35 = icmp ne i32 %34, 0
  br i1 %35, label %36, label %40

36:                                               ; preds = %31
  %37 = load ptr, ptr %11, align 8, !tbaa !4
  call void @_PyErr_Clear(ptr noundef %37)
  %38 = load ptr, ptr %10, align 8, !tbaa !9
  %39 = call ptr @_Py_NewRef(ptr noundef %38)
  store ptr %39, ptr %4, align 8
  store i32 1, ptr %12, align 4
  br label %44

40:                                               ; preds = %31, %28
  store ptr null, ptr %4, align 8
  store i32 1, ptr %12, align 4
  br label %44

41:                                               ; preds = %24, %19
  %42 = load i64, ptr %8, align 8, !tbaa !204
  %43 = call ptr @PyLong_FromSize_t(i64 noundef %42)
  store ptr %43, ptr %4, align 8
  store i32 1, ptr %12, align 4
  br label %44

44:                                               ; preds = %41, %40, %36, %18
  call void @llvm.lifetime.end.p0(i64 8, ptr %11) #12
  call void @llvm.lifetime.end.p0(i64 8, ptr %10) #12
  call void @llvm.lifetime.end.p0(i64 8, ptr %9) #12
  call void @llvm.lifetime.end.p0(i64 8, ptr %8) #12
  %45 = load ptr, ptr %4, align 8
  ret ptr %45
}