; Function Attrs: nounwind uwtable
define internal ptr @sys_getsizeof(ptr readnone captures(none) %0, ptr noundef %1, ptr noundef %2) #0 {
  %4 = alloca ptr, align 8
  %5 = alloca ptr, align 8
  call void @llvm.lifetime.start.p0(i64 8, ptr nonnull %4) #15
  call void @llvm.lifetime.start.p0(i64 8, ptr nonnull %5) #15
  store ptr null, ptr %5, align 8, !tbaa !93
  %6 = tail call align 8 ptr @llvm.threadlocal.address.p0(ptr align 8 @_Py_tss_tstate)
  %7 = load ptr, ptr %6, align 8, !tbaa !92
  %8 = call i32 (ptr, ptr, ptr, ptr, ...) @PyArg_ParseTupleAndKeywords(ptr noundef %1, ptr noundef %2, ptr noundef nonnull @.str.117, ptr noundef nonnull @sys_getsizeof.kwlist, ptr noundef nonnull %4, ptr noundef nonnull %5) #15
  %.not = icmp eq i32 %8, 0
  br i1 %.not, label %_Py_NewRef.exit, label %9

9:                                                ; preds = %3
  %10 = load ptr, ptr %4, align 8, !tbaa !93
  %11 = call i64 @_PySys_GetSizeOf(ptr noundef %10)
  %12 = icmp eq i64 %11, -1
  br i1 %12, label %13, label %_PyErr_Occurred.exit.thread

13:                                               ; preds = %9
  %14 = getelementptr i8, ptr %7, i64 112
  %.val = load ptr, ptr %14, align 8, !tbaa !95
  %15 = icmp eq ptr %.val, null
  br i1 %15, label %_PyErr_Occurred.exit.thread, label %_PyErr_Occurred.exit

_PyErr_Occurred.exit:                             ; preds = %13
  %16 = getelementptr i8, ptr %.val, i64 8
  %.val.i = load ptr, ptr %16, align 8, !tbaa !96
  %.not7 = icmp eq ptr %.val.i, null
  br i1 %.not7, label %_PyErr_Occurred.exit.thread, label %17

17:                                               ; preds = %_PyErr_Occurred.exit
  %18 = load ptr, ptr %5, align 8, !tbaa !93
  %.not8 = icmp eq ptr %18, null
  br i1 %.not8, label %_Py_NewRef.exit, label %19

19:                                               ; preds = %17
  %20 = load ptr, ptr @PyExc_TypeError, align 8, !tbaa !93
  %21 = call i32 @_PyErr_ExceptionMatches(ptr noundef nonnull %7, ptr noundef %20) #15
  %.not9 = icmp eq i32 %21, 0
  br i1 %.not9, label %_Py_NewRef.exit, label %22

22:                                               ; preds = %19
  call void @_PyErr_Clear(ptr noundef nonnull %7) #15
  %23 = load ptr, ptr %5, align 8, !tbaa !93
  %24 = load i32, ptr %23, align 8, !tbaa !94
  %25 = icmp slt i32 %24, 0
  br i1 %25, label %_Py_NewRef.exit, label %26

26:                                               ; preds = %22
  %27 = add nuw i32 %24, 1
  store i32 %27, ptr %23, align 8, !tbaa !94
  br label %_Py_NewRef.exit

_PyErr_Occurred.exit.thread:                      ; preds = %13, %_PyErr_Occurred.exit, %9
  %28 = call ptr @PyLong_FromSize_t(i64 noundef %11) #15
  br label %_Py_NewRef.exit

_Py_NewRef.exit:                                  ; preds = %26, %22, %17, %19, %3, %_PyErr_Occurred.exit.thread
  %.0 = phi ptr [ %28, %_PyErr_Occurred.exit.thread ], [ null, %3 ], [ null, %19 ], [ null, %17 ], [ %23, %22 ], [ %23, %26 ]
  call void @llvm.lifetime.end.p0(i64 8, ptr nonnull %5) #15
  call void @llvm.lifetime.end.p0(i64 8, ptr nonnull %4) #15
  ret ptr %.0
}